; Function Attrs: mustprogress nounwind willreturn uwtable
define void @_Z31rtlil_frontend_yy_delete_bufferP15yy_buffer_state(ptr noundef captures(address) %0) local_unnamed_addr #13 {
  %.not = icmp eq ptr %0, null
  br i1 %.not, label %16, label %2

2:                                                ; preds = %1
  %3 = load ptr, ptr @_ZL15yy_buffer_stack, align 8, !tbaa !15
  %.not6 = icmp eq ptr %3, null
  br i1 %.not6, label %.thread, label %4

4:                                                ; preds = %2
  %5 = load i64, ptr @_ZL19yy_buffer_stack_top, align 8, !tbaa !18
  %6 = getelementptr inbounds nuw ptr, ptr %3, i64 %5
  %7 = load ptr, ptr %6, align 8, !tbaa !20
  %8 = icmp eq ptr %0, %7
  br i1 %8, label %9, label %.thread

9:                                                ; preds = %4
  store ptr null, ptr %6, align 8, !tbaa !20
  br label %.thread

.thread:                                          ; preds = %2, %9, %4
  %10 = getelementptr inbounds nuw i8, ptr %0, i64 32
  %11 = load i32, ptr %10, align 8, !tbaa !25
  %.not7 = icmp eq i32 %11, 0
  br i1 %.not7, label %15, label %12

12:                                               ; preds = %.thread
  %13 = getelementptr inbounds nuw i8, ptr %0, i64 8
  %14 = load ptr, ptr %13, align 8, !tbaa !24
  tail call void @free(ptr noundef %14) #30
  br label %15

15:                                               ; preds = %12, %.thread
  tail call void @free(ptr noundef nonnull %0) #30
  br label %16

16:                                               ; preds = %1, %15
  ret void
}